target datalayout = "e-m:e-p270:32:32-p271:32:32-p272:64:64-i64:64-i128:128-f80:128-n8:16:32:64-S128"
target triple = "x86_64-pc-linux-gnu"

%struct.quic_conn_id_st = type { i8, [20 x i8] }
%union.bio_addr_st = type { %struct.sockaddr_in6, [84 x i8] }
%struct.sockaddr_in6 = type { i16, i16, i32, %struct.in6_addr, i32 }
%struct.in6_addr = type { %union.anon }
%union.anon = type { [4 x i32] }
%struct.OSSL_TIME = type { i64 }
%struct.quic_channel_st = type { ptr, %struct.anon, %struct.anon.0, ptr, ptr, ptr, ptr, ptr, ptr, ptr, i64, %union.bio_addr_st, ptr, ptr, ptr, %struct.quic_txfc_st, %struct.quic_rxfc_st, [3 x %struct.quic_rxfc_st], %struct.quic_rxfc_st, %struct.quic_rxfc_st, %struct.quic_stream_map_st, %struct.ossl_statm_st, ptr, ptr, ptr, ptr, ptr, ptr, ptr, ptr, [3 x ptr], [3 x ptr], %struct.quic_conn_id_st, %struct.quic_conn_id_st, %struct.quic_conn_id_st, %struct.quic_conn_id_st, %struct.quic_conn_id_st, %struct.quic_conn_id_st, i64, i64, i64, i64, i64, i64, i64, i64, i64, i64, i8, i16, ptr, i64, i64, i64, i64, i64, i64, i64, i64, i64, i64, i64, i64, i64, %struct.quic_terminate_cause_st, %struct.OSSL_TIME, %struct.OSSL_TIME, %struct.OSSL_TIME, %struct.OSSL_TIME, %struct.OSSL_TIME, i64, i64, i64, ptr, ptr, i64, ptr }
%struct.anon = type { ptr, ptr }
%struct.anon.0 = type { ptr, ptr }
%struct.quic_txfc_st = type { ptr, i64, i64, i8 }
%struct.quic_rxfc_st = type { i64, i64, i64, i64, i64, i64, i64, %struct.OSSL_TIME, ptr, ptr, ptr, i8, i8, i8, i8 }
%struct.quic_stream_map_st = type { ptr, %struct.quic_stream_list_node_st, %struct.quic_stream_list_node_st, %struct.quic_stream_list_node_st, i64, i64, i64, i64, i64, ptr, ptr, ptr, ptr, ptr, i32 }
%struct.quic_stream_list_node_st = type { ptr, ptr }
%struct.ossl_statm_st = type { %struct.OSSL_TIME, %struct.OSSL_TIME, %struct.OSSL_TIME, %struct.OSSL_TIME, i8 }
%struct.quic_terminate_cause_st = type { i64, i64, ptr, i64, i8 }

; Function Attrs: nounwind uwtable
define void @ossl_quic_channel_restore_err_state(ptr noundef %0) #0 {
  %2 = alloca ptr, align 8
  store ptr %0, ptr %2, align 8, !tbaa !3
  %3 = load ptr, ptr %2, align 8, !tbaa !3
  %4 = icmp eq ptr %3, null
  br i1 %4, label %5, label %6

5:                                                ; preds = %1
  br label %20

6:                                                ; preds = %1
  %7 = load ptr, ptr %2, align 8, !tbaa !3
  %8 = getelementptr inbounds nuw %struct.quic_channel_st, ptr %7, i32 0, i32 0
  %9 = load ptr, ptr %8, align 8, !tbaa !8
  %10 = call i32 @ossl_quic_port_is_running(ptr noundef %9)
  %11 = icmp ne i32 %10, 0
  br i1 %11, label %16, label %12

12:                                               ; preds = %6
  %13 = load ptr, ptr %2, align 8, !tbaa !3
  %14 = getelementptr inbounds nuw %struct.quic_channel_st, ptr %13, i32 0, i32 0
  %15 = load ptr, ptr %14, align 8, !tbaa !8
  call void @ossl_quic_port_restore_err_state(ptr noundef %15)
  br label %20

16:                                               ; preds = %6
  %17 = load ptr, ptr %2, align 8, !tbaa !3
  %18 = getelementptr inbounds nuw %struct.quic_channel_st, ptr %17, i32 0, i32 73
  %19 = load ptr, ptr %18, align 8, !tbaa !168
  call void @OSSL_ERR_STATE_restore(ptr noundef %19)
  br label %20

20:                                               ; preds = %5, %16, %12
  ret void
}