; Function Attrs: nounwind uwtable
define void @ossl_quic_channel_restore_err_state(ptr noundef readonly captures(address_is_null) %0) local_unnamed_addr #0 {
  %2 = icmp eq ptr %0, null
  br i1 %2, label %11, label %3

3:                                                ; preds = %1
  %4 = load ptr, ptr %0, align 8, !tbaa !3
  %5 = tail call i32 @ossl_quic_port_is_running(ptr noundef %4) #15
  %.not = icmp eq i32 %5, 0
  br i1 %.not, label %6, label %8

6:                                                ; preds = %3
  %7 = load ptr, ptr %0, align 8, !tbaa !3
  tail call void @ossl_quic_port_restore_err_state(ptr noundef %7) #15
  br label %11

8:                                                ; preds = %3
  %9 = getelementptr inbounds nuw i8, ptr %0, i64 1576
  %10 = load ptr, ptr %9, align 8, !tbaa !168
  tail call void @OSSL_ERR_STATE_restore(ptr noundef %10) #15
  br label %11

11:                                               ; preds = %1, %8, %6
  ret void
}